target datalayout = "e-m:e-p270:32:32-p271:32:32-p272:64:64-i64:64-i128:128-f80:128-n8:16:32:64-S128"
target triple = "x86_64-pc-linux-gnu"

%struct.Type_ = type { i32, ptr, ptr, ptr, %union.anon.96, ptr, ptr, %union.anon.98 }
%union.anon.96 = type { ptr }
%union.anon.98 = type { %struct.TypeFunction }
%struct.TypeFunction = type { ptr, ptr, ptr }
%struct.Decl_ = type { ptr, ptr, %union.SourceSpan, i64, %union.anon.5, i32, %union.anon.6, i64, ptr, ptr, ptr, %union.anon.7 }
%union.SourceSpan = type { i64 }
%union.anon.5 = type { ptr }
%union.anon.6 = type { i16 }
%union.anon.7 = type { %struct.FuncDecl }
%struct.FuncDecl = type { i32, [4 x i8], %struct.Signature_, i32, i32, %union.anon.14 }
%struct.Signature_ = type <{ %struct.CalleeAttributes, i16, i8, i32, i32, [4 x i8], ptr }>
%struct.CalleeAttributes = type { i8 }
%union.anon.14 = type { %struct.anon.15 }
%struct.anon.15 = type { i16, %union.anon.16 }
%union.anon.16 = type { ptr }
%struct.anon.8 = type { ptr, ptr, %union.anon.9 }
%union.anon.9 = type { %struct.BitStructDecl }
%struct.BitStructDecl = type { ptr, ptr, i8 }
%struct.TypeInfo_ = type { i16, ptr, %union.SourceSpan, %union.anon.56 }
%union.anon.56 = type { %struct.anon.57 }
%struct.anon.57 = type { ptr, ptr }
%struct.FunctionPrototype_ = type { i16, i16, ptr, ptr, ptr, ptr, ptr, ptr, ptr, ptr, ptr, ptr, ptr }
%struct.VHeader_ = type { i32, i32, [0 x i8] }

@.str = private unnamed_addr constant [36 x i8] c"FATAL ERROR %s -> in %s @ in %s:%d \00", align 1
@.str.1 = private unnamed_addr constant [22 x i8] c"Should be unreachable\00", align 1
@__func__.type_flatten = private unnamed_addr constant [13 x i8] c"type_flatten\00", align 1
@.str.3 = private unnamed_addr constant [118 x i8] c"generated/home/dtcxzyw/WorkSpace/Projects/compilers/llvm-opt-benchmark/bench/c3c/c3c/src/compiler/compiler_internal.h\00", align 1

; Function Attrs: nounwind uwtable
define internal ptr @type_flatten(ptr noundef %0) #0 {
  %2 = alloca ptr, align 8
  store ptr %0, ptr %2, align 8
  br label %3

3:                                                ; preds = %28, %1
  %4 = load ptr, ptr %2, align 8
  %5 = getelementptr inbounds %struct.Type_, ptr %4, i32 0, i32 1
  %6 = load ptr, ptr %5, align 8
  store ptr %6, ptr %2, align 8
  %7 = load ptr, ptr %2, align 8
  %8 = getelementptr inbounds %struct.Type_, ptr %7, i32 0, i32 0
  %9 = load i32, ptr %8, align 8
  switch i32 %9, label %26 [
    i32 32, label %10
    i32 40, label %19
    i32 31, label %23
  ]

10:                                               ; preds = %3
  %11 = load ptr, ptr %2, align 8
  %12 = getelementptr inbounds %struct.Type_, ptr %11, i32 0, i32 7
  %13 = load ptr, ptr %12, align 8
  %14 = getelementptr inbounds %struct.Decl_, ptr %13, i32 0, i32 11
  %15 = getelementptr inbounds %struct.anon.8, ptr %14, i32 0, i32 2
  %16 = load ptr, ptr %15, align 8
  %17 = getelementptr inbounds %struct.TypeInfo_, ptr %16, i32 0, i32 1
  %18 = load ptr, ptr %17, align 8
  store ptr %18, ptr %2, align 8
  br label %28

19:                                               ; preds = %3
  %20 = load ptr, ptr %2, align 8
  %21 = getelementptr inbounds %struct.Type_, ptr %20, i32 0, i32 7
  %22 = load ptr, ptr %21, align 8
  store ptr %22, ptr %2, align 8
  br label %28

23:                                               ; preds = %3
  br label %24

24:                                               ; preds = %23
  call void (ptr, ...) @error_exit(ptr noundef @.str, ptr noundef @.str.1, ptr noundef @__func__.type_flatten, ptr noundef @.str.3, i32 noundef 2984) #4
  unreachable

25:                                               ; No predecessors!
  br label %26

26:                                               ; preds = %25, %3
  %27 = load ptr, ptr %2, align 8
  ret ptr %27

28:                                               ; preds = %19, %10
  br label %3
}

; Function Attrs: nounwind uwtable
define dso_local void @c_abi_func_create_aarch64(ptr noundef %0) #0 {
  %2 = alloca i32, align 4
  %3 = alloca ptr, align 8
  %4 = alloca ptr, align 8
  %5 = alloca i32, align 4
  %6 = alloca ptr, align 8
  %7 = alloca ptr, align 8
  %8 = alloca ptr, align 8
  %9 = alloca ptr, align 8
  %10 = alloca i32, align 4
  %11 = alloca ptr, align 8
  %12 = alloca i32, align 4
  %13 = alloca ptr, align 8
  %14 = alloca i32, align 4
  %15 = alloca ptr, align 8
  %16 = alloca i32, align 4
  store ptr %0, ptr %8, align 8
  %17 = load ptr, ptr %8, align 8
  %18 = getelementptr inbounds %struct.FunctionPrototype_, ptr %17, i32 0, i32 7
  %19 = load ptr, ptr %18, align 8
  %20 = load ptr, ptr %8, align 8
  %21 = load i16, ptr %20, align 8
  %22 = lshr i16 %21, 4
  %23 = and i16 %22, 1
  %24 = trunc i16 %23 to i1
  %25 = call ptr @aarch64_classify_return_type(ptr noundef %19, i1 noundef zeroext %24)
  %26 = load ptr, ptr %8, align 8
  %27 = getelementptr inbounds %struct.FunctionPrototype_, ptr %26, i32 0, i32 8
  store ptr %25, ptr %27, align 8
  %28 = load ptr, ptr %8, align 8
  %29 = load i16, ptr %28, align 8
  %30 = lshr i16 %29, 7
  %31 = and i16 %30, 1
  %32 = trunc i16 %31 to i1
  br i1 %32, label %33, label %42

33:                                               ; preds = %1
  %34 = load ptr, ptr %8, align 8
  %35 = getelementptr inbounds %struct.FunctionPrototype_, ptr %34, i32 0, i32 6
  %36 = load ptr, ptr %35, align 8
  %37 = call ptr @type_flatten(ptr noundef %36)
  %38 = call ptr @type_get_ptr(ptr noundef %37)
  %39 = call ptr @aarch64_classify_argument_type(ptr noundef %38)
  %40 = load ptr, ptr %8, align 8
  %41 = getelementptr inbounds %struct.FunctionPrototype_, ptr %40, i32 0, i32 9
  store ptr %39, ptr %41, align 8
  br label %42

42:                                               ; preds = %33, %1
  %43 = load ptr, ptr %8, align 8
  %44 = getelementptr inbounds %struct.FunctionPrototype_, ptr %43, i32 0, i32 3
  %45 = load ptr, ptr %44, align 8
  store ptr %45, ptr %9, align 8
  %46 = load ptr, ptr %8, align 8
  %47 = getelementptr inbounds %struct.FunctionPrototype_, ptr %46, i32 0, i32 3
  %48 = load ptr, ptr %47, align 8
  store ptr %48, ptr %3, align 8
  %49 = load ptr, ptr %3, align 8
  %50 = icmp ne ptr %49, null
  br i1 %50, label %52, label %51

51:                                               ; preds = %42
  store i32 0, ptr %2, align 4
  br label %57

52:                                               ; preds = %42
  %53 = load ptr, ptr %3, align 8
  store ptr %53, ptr %4, align 8
  %54 = load ptr, ptr %4, align 8
  %55 = getelementptr inbounds %struct.VHeader_, ptr %54, i64 -1
  %56 = load i32, ptr %55, align 4
  store i32 %56, ptr %2, align 4
  br label %57

57:                                               ; preds = %52, %51
  %58 = load i32, ptr %2, align 4
  store i32 %58, ptr %10, align 4
  %59 = load i32, ptr %10, align 4
  %60 = icmp ne i32 %59, 0
  br i1 %60, label %61, label %88

61:                                               ; preds = %57
  %62 = load i32, ptr %10, align 4
  %63 = zext i32 %62 to i64
  %64 = mul i64 32, %63
  %65 = call ptr @calloc_arena(i64 noundef %64)
  store ptr %65, ptr %11, align 8
  store i32 0, ptr %12, align 4
  br label %66

66:                                               ; preds = %81, %61
  %67 = load i32, ptr %12, align 4
  %68 = load i32, ptr %10, align 4
  %69 = icmp ult i32 %67, %68
  br i1 %69, label %70, label %84

70:                                               ; preds = %66
  %71 = load ptr, ptr %9, align 8
  %72 = load i32, ptr %12, align 4
  %73 = zext i32 %72 to i64
  %74 = getelementptr inbounds ptr, ptr %71, i64 %73
  %75 = load ptr, ptr %74, align 8
  %76 = call ptr @aarch64_classify_argument_type(ptr noundef %75)
  %77 = load ptr, ptr %11, align 8
  %78 = load i32, ptr %12, align 4
  %79 = zext i32 %78 to i64
  %80 = getelementptr inbounds ptr, ptr %77, i64 %79
  store ptr %76, ptr %80, align 8
  br label %81

81:                                               ; preds = %70
  %82 = load i32, ptr %12, align 4
  %83 = add i32 %82, 1
  store i32 %83, ptr %12, align 4
  br label %66, !llvm.loop !7

84:                                               ; preds = %66
  %85 = load ptr, ptr %11, align 8
  %86 = load ptr, ptr %8, align 8
  %87 = getelementptr inbounds %struct.FunctionPrototype_, ptr %86, i32 0, i32 10
  store ptr %85, ptr %87, align 8
  br label %88

88:                                               ; preds = %84, %57
  %89 = load ptr, ptr %8, align 8
  %90 = getelementptr inbounds %struct.FunctionPrototype_, ptr %89, i32 0, i32 5
  %91 = load ptr, ptr %90, align 8
  store ptr %91, ptr %13, align 8
  %92 = load ptr, ptr %13, align 8
  store ptr %92, ptr %6, align 8
  %93 = load ptr, ptr %6, align 8
  %94 = icmp ne ptr %93, null
  br i1 %94, label %96, label %95

95:                                               ; preds = %88
  store i32 0, ptr %5, align 4
  br label %101

96:                                               ; preds = %88
  %97 = load ptr, ptr %6, align 8
  store ptr %97, ptr %7, align 8
  %98 = load ptr, ptr %7, align 8
  %99 = getelementptr inbounds %struct.VHeader_, ptr %98, i64 -1
  %100 = load i32, ptr %99, align 4
  store i32 %100, ptr %5, align 4
  br label %101

101:                                              ; preds = %96, %95
  %102 = load i32, ptr %5, align 4
  store i32 %102, ptr %14, align 4
  %103 = load i32, ptr %14, align 4
  %104 = icmp ne i32 %103, 0
  br i1 %104, label %105, label %132

105:                                              ; preds = %101
  %106 = load i32, ptr %14, align 4
  %107 = zext i32 %106 to i64
  %108 = mul i64 32, %107
  %109 = call ptr @calloc_arena(i64 noundef %108)
  store ptr %109, ptr %15, align 8
  store i32 0, ptr %16, align 4
  br label %110

110:                                              ; preds = %125, %105
  %111 = load i32, ptr %16, align 4
  %112 = load i32, ptr %14, align 4
  %113 = icmp ult i32 %111, %112
  br i1 %113, label %114, label %128

114:                                              ; preds = %110
  %115 = load ptr, ptr %13, align 8
  %116 = load i32, ptr %16, align 4
  %117 = zext i32 %116 to i64
  %118 = getelementptr inbounds ptr, ptr %115, i64 %117
  %119 = load ptr, ptr %118, align 8
  %120 = call ptr @aarch64_classify_argument_type(ptr noundef %119)
  %121 = load ptr, ptr %15, align 8
  %122 = load i32, ptr %16, align 4
  %123 = zext i32 %122 to i64
  %124 = getelementptr inbounds ptr, ptr %121, i64 %123
  store ptr %120, ptr %124, align 8
  br label %125

125:                                              ; preds = %114
  %126 = load i32, ptr %16, align 4
  %127 = add i32 %126, 1
  store i32 %127, ptr %16, align 4
  br label %110, !llvm.loop !9

128:                                              ; preds = %110
  %129 = load ptr, ptr %15, align 8
  %130 = load ptr, ptr %8, align 8
  %131 = getelementptr inbounds %struct.FunctionPrototype_, ptr %130, i32 0, i32 11
  store ptr %129, ptr %131, align 8
  br label %132

132:                                              ; preds = %128, %101
  ret void
}