; Function Attrs: nounwind uwtable
define dso_local void @c_abi_func_create_aarch64(ptr nocapture noundef %0) local_unnamed_addr #0 {
  %2 = getelementptr inbounds i8, ptr %0, i64 48
  %3 = load ptr, ptr %2, align 8
  %4 = load i16, ptr %0, align 8
  %5 = and i16 %4, 16
  %6 = icmp ne i16 %5, 0
  %7 = tail call ptr @aarch64_classify_return_type(ptr noundef %3, i1 noundef zeroext %6)
  %8 = getelementptr inbounds i8, ptr %0, i64 56
  store ptr %7, ptr %8, align 8
  %9 = load i16, ptr %0, align 8
  %10 = and i16 %9, 128
  %.not = icmp eq i16 %10, 0
  br i1 %.not, label %29, label %11

11:                                               ; preds = %1
  %12 = getelementptr inbounds i8, ptr %0, i64 40
  br label %13

13:                                               ; preds = %.backedge, %11
  %.0.i.in = phi ptr [ %12, %11 ], [ %.0.i.in.be, %.backedge ]
  %.0.i = load ptr, ptr %.0.i.in, align 8
  %14 = getelementptr inbounds i8, ptr %.0.i, i64 8
  %15 = load ptr, ptr %14, align 8
  %16 = load i32, ptr %15, align 8
  switch i32 %16, label %type_flatten.exit [
    i32 32, label %17
    i32 40, label %23
    i32 31, label %25
  ]

17:                                               ; preds = %13
  %18 = getelementptr inbounds i8, ptr %15, i64 56
  %19 = load ptr, ptr %18, align 8
  %20 = getelementptr inbounds i8, ptr %19, i64 96
  %21 = load ptr, ptr %20, align 8
  %22 = getelementptr inbounds i8, ptr %21, i64 8
  br label %.backedge

23:                                               ; preds = %13
  %24 = getelementptr inbounds i8, ptr %15, i64 56
  br label %.backedge

.backedge:                                        ; preds = %23, %17
  %.0.i.in.be = phi ptr [ %24, %23 ], [ %22, %17 ]
  br label %13

25:                                               ; preds = %13
  tail call void (ptr, ...) @error_exit(ptr noundef nonnull @.str, ptr noundef nonnull @.str.1, ptr noundef nonnull @__func__.type_flatten, ptr noundef nonnull @.str.3, i32 noundef 2984) #5
  unreachable

type_flatten.exit:                                ; preds = %13
  %26 = tail call ptr @type_get_ptr(ptr noundef nonnull %15) #4
  %27 = tail call ptr @aarch64_classify_argument_type(ptr noundef %26)
  %28 = getelementptr inbounds i8, ptr %0, i64 64
  store ptr %27, ptr %28, align 8
  br label %29

29:                                               ; preds = %type_flatten.exit, %1
  %30 = getelementptr inbounds i8, ptr %0, i64 16
  %31 = load ptr, ptr %30, align 8
  %.not44 = icmp eq ptr %31, null
  br i1 %.not44, label %.thread, label %32

32:                                               ; preds = %29
  %33 = getelementptr inbounds i8, ptr %31, i64 -8
  %34 = load i32, ptr %33, align 4
  %.not45 = icmp eq i32 %34, 0
  br i1 %.not45, label %.thread, label %35

35:                                               ; preds = %32
  %36 = zext i32 %34 to i64
  %37 = shl nuw nsw i64 %36, 5
  %38 = tail call ptr @calloc_arena(i64 noundef %37) #4
  br label %39

39:                                               ; preds = %35, %39
  %indvars.iv = phi i64 [ 0, %35 ], [ %indvars.iv.next, %39 ]
  %40 = getelementptr inbounds ptr, ptr %31, i64 %indvars.iv
  %41 = load ptr, ptr %40, align 8
  %42 = tail call ptr @aarch64_classify_argument_type(ptr noundef %41)
  %43 = getelementptr inbounds ptr, ptr %38, i64 %indvars.iv
  store ptr %42, ptr %43, align 8
  %indvars.iv.next = add nuw nsw i64 %indvars.iv, 1
  %exitcond.not = icmp eq i64 %indvars.iv.next, %36
  br i1 %exitcond.not, label %44, label %39, !llvm.loop !8

44:                                               ; preds = %39
  %45 = getelementptr inbounds i8, ptr %0, i64 72
  store ptr %38, ptr %45, align 8
  br label %.thread

.thread:                                          ; preds = %29, %44, %32
  %46 = getelementptr inbounds i8, ptr %0, i64 32
  %47 = load ptr, ptr %46, align 8
  %.not46 = icmp eq ptr %47, null
  br i1 %.not46, label %.thread50, label %48

48:                                               ; preds = %.thread
  %49 = getelementptr inbounds i8, ptr %47, i64 -8
  %50 = load i32, ptr %49, align 4
  %.not47 = icmp eq i32 %50, 0
  br i1 %.not47, label %.thread50, label %51

51:                                               ; preds = %48
  %52 = zext i32 %50 to i64
  %53 = shl nuw nsw i64 %52, 5
  %54 = tail call ptr @calloc_arena(i64 noundef %53) #4
  br label %55

55:                                               ; preds = %51, %55
  %indvars.iv58 = phi i64 [ 0, %51 ], [ %indvars.iv.next59, %55 ]
  %56 = getelementptr inbounds ptr, ptr %47, i64 %indvars.iv58
  %57 = load ptr, ptr %56, align 8
  %58 = tail call ptr @aarch64_classify_argument_type(ptr noundef %57)
  %59 = getelementptr inbounds ptr, ptr %54, i64 %indvars.iv58
  store ptr %58, ptr %59, align 8
  %indvars.iv.next59 = add nuw nsw i64 %indvars.iv58, 1
  %exitcond62.not = icmp eq i64 %indvars.iv.next59, %52
  br i1 %exitcond62.not, label %60, label %55, !llvm.loop !10

60:                                               ; preds = %55
  %61 = getelementptr inbounds i8, ptr %0, i64 80
  store ptr %54, ptr %61, align 8
  br label %.thread50

.thread50:                                        ; preds = %.thread, %60, %48
  ret void
}